target datalayout = "e-m:e-p270:32:32-p271:32:32-p272:64:64-i64:64-i128:128-f80:128-n8:16:32:64-S128"
target triple = "x86_64-unknown-linux-gnu"

@.str.1 = private unnamed_addr constant [31 x i8] c"../qemu/hw/intc/riscv_aclint.c\00", align 1
@.str.2 = private unnamed_addr constant [36 x i8] c"num_harts <= RISCV_ACLINT_MAX_HARTS\00", align 1
@.str.6 = private unnamed_addr constant [12 x i8] c"hartid-base\00", align 1
@.str.7 = private unnamed_addr constant [10 x i8] c"num-harts\00", align 1
@error_fatal = external global ptr, align 8
@.str.12 = private unnamed_addr constant [17 x i8] c"riscv.aclint.swi\00", align 1
@__PRETTY_FUNCTION__.riscv_aclint_swi_create = private unnamed_addr constant [72 x i8] c"DeviceState *riscv_aclint_swi_create(hwaddr, uint32_t, uint32_t, _Bool)\00", align 1
@.str.13 = private unnamed_addr constant [14 x i8] c"!(addr & 0x3)\00", align 1
@.str.14 = private unnamed_addr constant [5 x i8] c"sswi\00", align 1
@.str.15 = private unnamed_addr constant [15 x i8] c"sys-bus-device\00", align 1
@.str.16 = private unnamed_addr constant [98 x i8] c"/home/dtcxzyw/WorkSpace/Projects/compilers/llvm-opt-benchmark/bench/qemu/qemu/include/hw/sysbus.h\00", align 1
@__func__.SYS_BUS_DEVICE = private unnamed_addr constant [15 x i8] c"SYS_BUS_DEVICE\00", align 1
@.str.17 = private unnamed_addr constant [10 x i8] c"riscv-cpu\00", align 1
@.str.18 = private unnamed_addr constant [101 x i8] c"/home/dtcxzyw/WorkSpace/Projects/compilers/llvm-opt-benchmark/bench/qemu/qemu/target/riscv/cpu-qom.h\00", align 1
@__func__.RISCV_CPU = private unnamed_addr constant [10 x i8] c"RISCV_CPU\00", align 1
@.str.19 = private unnamed_addr constant [7 x i8] c"device\00", align 1
@.str.20 = private unnamed_addr constant [101 x i8] c"/home/dtcxzyw/WorkSpace/Projects/compilers/llvm-opt-benchmark/bench/qemu/qemu/include/hw/qdev-core.h\00", align 1
@__func__.DEVICE = private unnamed_addr constant [7 x i8] c"DEVICE\00", align 1

; Function Attrs: nounwind sspstrong uwtable
define internal ptr @DEVICE(ptr noundef %obj) #0 {
entry:
  %obj.addr = alloca ptr, align 8
  store ptr %obj, ptr %obj.addr, align 8
  %0 = load ptr, ptr %obj.addr, align 8
  %call = call ptr @object_dynamic_cast_assert(ptr noundef %0, ptr noundef @.str.19, ptr noundef @.str.20, i32 noundef 77, ptr noundef @__func__.DEVICE)
  ret ptr %call
}

; Function Attrs: nounwind sspstrong uwtable
define internal ptr @RISCV_CPU(ptr noundef %obj) #0 {
entry:
  %obj.addr = alloca ptr, align 8
  store ptr %obj, ptr %obj.addr, align 8
  %0 = load ptr, ptr %obj.addr, align 8
  %call = call ptr @object_dynamic_cast_assert(ptr noundef %0, ptr noundef @.str.17, ptr noundef @.str.18, i32 noundef 46, ptr noundef @__func__.RISCV_CPU)
  ret ptr %call
}

; Function Attrs: nounwind sspstrong uwtable
define internal ptr @SYS_BUS_DEVICE(ptr noundef %obj) #0 {
entry:
  %obj.addr = alloca ptr, align 8
  store ptr %obj, ptr %obj.addr, align 8
  %0 = load ptr, ptr %obj.addr, align 8
  %call = call ptr @object_dynamic_cast_assert(ptr noundef %0, ptr noundef @.str.15, ptr noundef @.str.16, i32 noundef 20, ptr noundef @__func__.SYS_BUS_DEVICE)
  ret ptr %call
}

; Function Attrs: nounwind sspstrong uwtable
define dso_local ptr @riscv_aclint_swi_create(i64 noundef %addr, i32 noundef %hartid_base, i32 noundef %num_harts, i1 noundef zeroext %sswi) #0 {
entry:
  %addr.addr = alloca i64, align 8
  %hartid_base.addr = alloca i32, align 4
  %num_harts.addr = alloca i32, align 4
  %sswi.addr = alloca i8, align 1
  %i = alloca i32, align 4
  %dev = alloca ptr, align 8
  %cpu = alloca ptr, align 8
  %rvcpu = alloca ptr, align 8
  store i64 %addr, ptr %addr.addr, align 8
  store i32 %hartid_base, ptr %hartid_base.addr, align 4
  store i32 %num_harts, ptr %num_harts.addr, align 4
  %frombool = zext i1 %sswi to i8
  store i8 %frombool, ptr %sswi.addr, align 1
  %call = call ptr @qdev_new(ptr noundef @.str.12)
  store ptr %call, ptr %dev, align 8
  %0 = load i32, ptr %num_harts.addr, align 4
  %cmp = icmp ule i32 %0, 4095
  br i1 %cmp, label %if.then, label %if.else

if.then:                                          ; preds = %entry
  br label %if.end

if.else:                                          ; preds = %entry
  call void @__assert_fail(ptr noundef @.str.2, ptr noundef @.str.1, i32 noundef 539, ptr noundef @__PRETTY_FUNCTION__.riscv_aclint_swi_create) #4
  unreachable

if.end:                                           ; preds = %if.then
  %1 = load i64, ptr %addr.addr, align 8
  %and = and i64 %1, 3
  %tobool = icmp ne i64 %and, 0
  br i1 %tobool, label %if.else2, label %if.then1

if.then1:                                         ; preds = %if.end
  br label %if.end3

if.else2:                                         ; preds = %if.end
  call void @__assert_fail(ptr noundef @.str.13, ptr noundef @.str.1, i32 noundef 540, ptr noundef @__PRETTY_FUNCTION__.riscv_aclint_swi_create) #4
  unreachable

if.end3:                                          ; preds = %if.then1
  %2 = load ptr, ptr %dev, align 8
  %3 = load i32, ptr %hartid_base.addr, align 4
  call void @qdev_prop_set_uint32(ptr noundef %2, ptr noundef @.str.6, i32 noundef %3)
  %4 = load ptr, ptr %dev, align 8
  %5 = load i32, ptr %num_harts.addr, align 4
  call void @qdev_prop_set_uint32(ptr noundef %4, ptr noundef @.str.7, i32 noundef %5)
  %6 = load ptr, ptr %dev, align 8
  %7 = load i8, ptr %sswi.addr, align 1
  %tobool4 = trunc i8 %7 to i1
  %cond = select i1 %tobool4, i32 1, i32 0
  call void @qdev_prop_set_uint32(ptr noundef %6, ptr noundef @.str.14, i32 noundef %cond)
  %8 = load ptr, ptr %dev, align 8
  %call5 = call ptr @SYS_BUS_DEVICE(ptr noundef %8)
  %call6 = call zeroext i1 @sysbus_realize_and_unref(ptr noundef %call5, ptr noundef @error_fatal)
  %9 = load ptr, ptr %dev, align 8
  %call7 = call ptr @SYS_BUS_DEVICE(ptr noundef %9)
  %10 = load i64, ptr %addr.addr, align 8
  call void @sysbus_mmio_map(ptr noundef %call7, i32 noundef 0, i64 noundef %10)
  store i32 0, ptr %i, align 4
  br label %for.cond

for.cond:                                         ; preds = %for.inc, %if.end3
  %11 = load i32, ptr %i, align 4
  %12 = load i32, ptr %num_harts.addr, align 4
  %cmp8 = icmp ult i32 %11, %12
  br i1 %cmp8, label %for.body, label %for.end

for.body:                                         ; preds = %for.cond
  %13 = load i32, ptr %hartid_base.addr, align 4
  %14 = load i32, ptr %i, align 4
  %add = add i32 %13, %14
  %conv = zext i32 %add to i64
  %call9 = call ptr @cpu_by_arch_id(i64 noundef %conv)
  store ptr %call9, ptr %cpu, align 8
  %15 = load ptr, ptr %cpu, align 8
  %call10 = call ptr @RISCV_CPU(ptr noundef %15)
  store ptr %call10, ptr %rvcpu, align 8
  %16 = load ptr, ptr %dev, align 8
  %17 = load i32, ptr %i, align 4
  %18 = load ptr, ptr %rvcpu, align 8
  %call11 = call ptr @DEVICE(ptr noundef %18)
  %19 = load i8, ptr %sswi.addr, align 1
  %tobool12 = trunc i8 %19 to i1
  %cond14 = select i1 %tobool12, i32 1, i32 3
  %call15 = call ptr @qdev_get_gpio_in(ptr noundef %call11, i32 noundef %cond14)
  call void @qdev_connect_gpio_out(ptr noundef %16, i32 noundef %17, ptr noundef %call15)
  br label %for.inc

for.inc:                                          ; preds = %for.body
  %20 = load i32, ptr %i, align 4
  %inc = add i32 %20, 1
  store i32 %inc, ptr %i, align 4
  br label %for.cond, !llvm.loop !7

for.end:                                          ; preds = %for.cond
  %21 = load ptr, ptr %dev, align 8
  ret ptr %21
}