; Function Attrs: nounwind sspstrong uwtable
define dso_local ptr @riscv_aclint_swi_create(i64 noundef %addr, i32 noundef %hartid_base, i32 noundef %num_harts, i1 noundef zeroext %sswi) local_unnamed_addr #0 {
entry:
  %call = tail call ptr @qdev_new(ptr noundef nonnull @.str.12) #6
  %cmp = icmp ult i32 %num_harts, 4096
  br i1 %cmp, label %if.end, label %if.else

if.else:                                          ; preds = %entry
  tail call void @__assert_fail(ptr noundef nonnull @.str.2, ptr noundef nonnull @.str.1, i32 noundef 539, ptr noundef nonnull @__PRETTY_FUNCTION__.riscv_aclint_swi_create) #7
  unreachable

if.end:                                           ; preds = %entry
  %and = and i64 %addr, 3
  %tobool.not = icmp eq i64 %and, 0
  br i1 %tobool.not, label %if.end3, label %if.else2

if.else2:                                         ; preds = %if.end
  tail call void @__assert_fail(ptr noundef nonnull @.str.13, ptr noundef nonnull @.str.1, i32 noundef 540, ptr noundef nonnull @__PRETTY_FUNCTION__.riscv_aclint_swi_create) #7
  unreachable

if.end3:                                          ; preds = %if.end
  tail call void @qdev_prop_set_uint32(ptr noundef %call, ptr noundef nonnull @.str.6, i32 noundef %hartid_base) #6
  tail call void @qdev_prop_set_uint32(ptr noundef %call, ptr noundef nonnull @.str.7, i32 noundef %num_harts) #6
  %cond = zext i1 %sswi to i32
  tail call void @qdev_prop_set_uint32(ptr noundef %call, ptr noundef nonnull @.str.14, i32 noundef %cond) #6
  %call.i = tail call ptr @object_dynamic_cast_assert(ptr noundef %call, ptr noundef nonnull @.str.15, ptr noundef nonnull @.str.16, i32 noundef 20, ptr noundef nonnull @__func__.SYS_BUS_DEVICE) #6
  %call6 = tail call zeroext i1 @sysbus_realize_and_unref(ptr noundef %call.i, ptr noundef nonnull @error_fatal) #6
  %call.i15 = tail call ptr @object_dynamic_cast_assert(ptr noundef %call, ptr noundef nonnull @.str.15, ptr noundef nonnull @.str.16, i32 noundef 20, ptr noundef nonnull @__func__.SYS_BUS_DEVICE) #6
  tail call void @sysbus_mmio_map(ptr noundef %call.i15, i32 noundef 0, i64 noundef %addr) #6
  %cmp818.not = icmp eq i32 %num_harts, 0
  br i1 %cmp818.not, label %for.end, label %for.body.lr.ph

for.body.lr.ph:                                   ; preds = %if.end3
  %cond14 = select i1 %sswi, i32 1, i32 3
  %wide.trip.count = zext nneg i32 %num_harts to i64
  br label %for.body

for.body:                                         ; preds = %for.body.lr.ph, %for.body
  %indvars.iv = phi i64 [ 0, %for.body.lr.ph ], [ %indvars.iv.next, %for.body ]
  %0 = trunc nuw nsw i64 %indvars.iv to i32
  %add = add i32 %hartid_base, %0
  %conv = zext i32 %add to i64
  %call9 = tail call ptr @cpu_by_arch_id(i64 noundef %conv) #6
  %call.i16 = tail call ptr @object_dynamic_cast_assert(ptr noundef %call9, ptr noundef nonnull @.str.17, ptr noundef nonnull @.str.18, i32 noundef 46, ptr noundef nonnull @__func__.RISCV_CPU) #6
  %call.i17 = tail call ptr @object_dynamic_cast_assert(ptr noundef %call.i16, ptr noundef nonnull @.str.19, ptr noundef nonnull @.str.20, i32 noundef 77, ptr noundef nonnull @__func__.DEVICE) #6
  %call15 = tail call ptr @qdev_get_gpio_in(ptr noundef %call.i17, i32 noundef %cond14) #6
  tail call void @qdev_connect_gpio_out(ptr noundef %call, i32 noundef %0, ptr noundef %call15) #6
  %indvars.iv.next = add nuw nsw i64 %indvars.iv, 1
  %exitcond.not = icmp eq i64 %indvars.iv.next, %wide.trip.count
  br i1 %exitcond.not, label %for.end, label %for.body, !llvm.loop !7

for.end:                                          ; preds = %for.body, %if.end3
  ret ptr %call
}